; Function Attrs: mustprogress uwtable
define hidden void @_ZNK4cvc58internal6theory5arith6linear8ErrorSet11computeDiffEj(ptr dead_on_unwind noalias writable sret(%"class.cvc5::internal::DeltaRational") align 8 %0, ptr noundef nonnull readonly align 8 captures(none) dereferenceable(240) %1, i32 noundef %2) local_unnamed_addr #9 align 2 {
  %4 = load ptr, ptr %1, align 8, !tbaa !98
  %5 = tail call noundef nonnull align 8 dereferenceable(64) ptr @_ZNK4cvc58internal6theory5arith6linear14ArithVariables13getAssignmentEj(ptr noundef nonnull align 8 dereferenceable(568) %4, i32 noundef %2)
  %6 = load ptr, ptr %1, align 8, !tbaa !98
  %7 = getelementptr inbounds nuw i8, ptr %6, i64 48
  %8 = zext i32 %2 to i64
  %9 = load ptr, ptr %7, align 8, !tbaa !102
  %10 = getelementptr inbounds nuw %"class.cvc5::internal::theory::arith::linear::ArithVariables::VarInfo", ptr %9, i64 %8, i32 5
  %11 = load i32, ptr %10, align 8, !tbaa !105
  %12 = icmp slt i32 %11, 0
  br i1 %12, label %13, label %15

13:                                               ; preds = %3
  %14 = tail call noundef nonnull align 8 dereferenceable(64) ptr @_ZNK4cvc58internal6theory5arith6linear14ArithVariables13getLowerBoundEj(ptr noundef nonnull align 8 dereferenceable(568) %6, i32 noundef %2)
  tail call void @_ZNK4cvc58internal13DeltaRationalmiERKS1_(ptr dead_on_unwind writable sret(%"class.cvc5::internal::DeltaRational") align 8 %0, ptr noundef nonnull align 8 dereferenceable(64) %14, ptr noundef nonnull align 8 dereferenceable(64) %5)
  br label %17

15:                                               ; preds = %3
  %16 = tail call noundef nonnull align 8 dereferenceable(64) ptr @_ZNK4cvc58internal6theory5arith6linear14ArithVariables13getUpperBoundEj(ptr noundef nonnull align 8 dereferenceable(568) %6, i32 noundef %2)
  tail call void @_ZNK4cvc58internal13DeltaRationalmiERKS1_(ptr dead_on_unwind writable sret(%"class.cvc5::internal::DeltaRational") align 8 %0, ptr noundef nonnull align 8 dereferenceable(64) %5, ptr noundef nonnull align 8 dereferenceable(64) %16)
  br label %17

17:                                               ; preds = %13, %15
  ret void
}